target datalayout = "e-m:e-p270:32:32-p271:32:32-p272:64:64-i64:64-i128:128-f80:128-n8:16:32:64-S128"
target triple = "x86_64-pc-linux-gnu"

%struct.Agsym_s = type { %struct.dtlink_s_, ptr, ptr, i32, i8, i8, i8 }
%struct.dtlink_s_ = type { ptr, %union.anon.0 }
%union.anon.0 = type { ptr }

@Ag_G_global = external global ptr, align 8

; Function Attrs: nounwind uwtable
define internal void @freesym(ptr noundef %0) #0 {
  %2 = alloca ptr, align 8
  %3 = alloca ptr, align 8
  store ptr %0, ptr %2, align 8, !tbaa !3
  call void @llvm.lifetime.start.p0(i64 8, ptr %3) #11
  %4 = load ptr, ptr %2, align 8, !tbaa !3
  store ptr %4, ptr %3, align 8, !tbaa !7
  %5 = load ptr, ptr @Ag_G_global, align 8, !tbaa !9
  %6 = load ptr, ptr %3, align 8, !tbaa !7
  %7 = getelementptr inbounds nuw %struct.Agsym_s, ptr %6, i32 0, i32 1
  %8 = load ptr, ptr %7, align 8, !tbaa !11
  %9 = call i32 @agstrfree(ptr noundef %5, ptr noundef %8, i1 noundef zeroext false)
  %10 = load ptr, ptr @Ag_G_global, align 8, !tbaa !9
  %11 = load ptr, ptr %3, align 8, !tbaa !7
  %12 = getelementptr inbounds nuw %struct.Agsym_s, ptr %11, i32 0, i32 2
  %13 = load ptr, ptr %12, align 8, !tbaa !17
  %14 = load ptr, ptr %3, align 8, !tbaa !7
  %15 = getelementptr inbounds nuw %struct.Agsym_s, ptr %14, i32 0, i32 2
  %16 = load ptr, ptr %15, align 8, !tbaa !17
  %17 = call i32 @aghtmlstr(ptr noundef %16)
  %18 = icmp ne i32 %17, 0
  %19 = call i32 @agstrfree(ptr noundef %10, ptr noundef %13, i1 noundef zeroext %18)
  %20 = load ptr, ptr %3, align 8, !tbaa !7
  call void @free(ptr noundef %20) #11
  call void @llvm.lifetime.end.p0(i64 8, ptr %3) #11
  ret void
}