; Function Attrs: nounwind uwtable
define internal void @freesym(ptr noundef captures(none) %0) #0 {
  %2 = load ptr, ptr @Ag_G_global, align 8, !tbaa !3
  %3 = getelementptr inbounds nuw i8, ptr %0, i64 16
  %4 = load ptr, ptr %3, align 8, !tbaa !8
  %5 = tail call i32 @agstrfree(ptr noundef %2, ptr noundef %4, i1 noundef zeroext false) #12
  %6 = load ptr, ptr @Ag_G_global, align 8, !tbaa !3
  %7 = getelementptr inbounds nuw i8, ptr %0, i64 24
  %8 = load ptr, ptr %7, align 8, !tbaa !14
  %9 = tail call i32 @aghtmlstr(ptr noundef %8) #12
  %10 = icmp ne i32 %9, 0
  %11 = tail call i32 @agstrfree(ptr noundef %6, ptr noundef %8, i1 noundef zeroext %10) #12
  tail call void @free(ptr noundef %0) #12
  ret void
}